; Function Attrs: nounwind uwtable
define hidden void @newhope_helprec(ptr noundef writeonly captures(none) %c, ptr noundef readonly captures(none) %v) local_unnamed_addr #0 {
entry:
  %rand = alloca [32 x i8], align 16
  %call = call i32 @RAND_bytes(ptr noundef nonnull %rand, i64 noundef 32) #5
  br label %for.body

for.body:                                         ; preds = %entry, %for.body
  %indvars.iv = phi i64 [ 0, %entry ], [ %indvars.iv.next, %for.body ]
  %0 = trunc nuw nsw i64 %indvars.iv to i32
  %shr = lshr i64 %indvars.iv, 3
  %idxprom = and i64 %shr, 536870911
  %arrayidx = getelementptr inbounds nuw [32 x i8], ptr %rand, i64 0, i64 %idxprom
  %1 = load i8, ptr %arrayidx, align 1
  %conv = zext i8 %1 to i32
  %and = and i32 %0, 7
  %shr1 = lshr i32 %conv, %and
  %arrayidx8 = getelementptr inbounds nuw [1024 x i16], ptr %v, i64 0, i64 %indvars.iv
  %2 = load i16, ptr %arrayidx8, align 2
  %conv9 = zext i16 %2 to i32
  %mul = shl nuw nsw i32 %conv9, 3
  %conv3 = shl nuw nsw i32 %shr1, 2
  %mul11 = and i32 %conv3, 4
  %add12 = or disjoint i32 %mul11, %mul
  %mul.i = mul nuw nsw i32 %add12, 2730
  %shr.i = lshr i32 %mul.i, 25
  %mul1.neg.i = mul nsw i32 %shr.i, -12289
  %sub.i = add nsw i32 %mul1.neg.i, %add12
  %3 = icmp sgt i32 %sub.i, 12288
  %shr3.neg.i = zext i1 %3 to i32
  %sub4.i = add nuw nsw i32 %shr.i, %shr3.neg.i
  %and.i = and i32 %sub4.i, 1
  %shr5.i = lshr i32 %sub4.i, 1
  %add.i = add nuw nsw i32 %shr5.i, %and.i
  %sub6.i = add nsw i32 %sub4.i, -1
  %and7.i = and i32 %sub6.i, 1
  %shr8.i = lshr i32 %sub6.i, 1
  %add9.i = add nuw i32 %shr8.i, %and7.i
  %mul11.neg.i = mul nsw i32 %add.i, -24578
  %sub12.i = add nsw i32 %mul11.neg.i, %add12
  %sub.i.i = call range(i32 0, -2147483648) i32 @llvm.abs.i32(i32 range(i32 -2147483647, -2147483648) %sub12.i, i1 true)
  %4 = or disjoint i64 %indvars.iv, 256
  %arrayidx21 = getelementptr inbounds nuw [1024 x i16], ptr %v, i64 0, i64 %4
  %5 = load i16, ptr %arrayidx21, align 2
  %conv22 = zext i16 %5 to i32
  %mul23 = shl nuw nsw i32 %conv22, 3
  %add26 = or disjoint i32 %mul23, %mul11
  %mul.i36 = mul nuw nsw i32 %add26, 2730
  %shr.i37 = lshr i32 %mul.i36, 25
  %mul1.neg.i38 = mul nsw i32 %shr.i37, -12289
  %sub.i39 = add nsw i32 %mul1.neg.i38, %add26
  %6 = icmp sgt i32 %sub.i39, 12288
  %shr3.neg.i40 = zext i1 %6 to i32
  %sub4.i41 = add nuw nsw i32 %shr.i37, %shr3.neg.i40
  %and.i42 = and i32 %sub4.i41, 1
  %shr5.i43 = lshr i32 %sub4.i41, 1
  %add.i44 = add nuw nsw i32 %shr5.i43, %and.i42
  %sub6.i45 = add nsw i32 %sub4.i41, -1
  %and7.i46 = and i32 %sub6.i45, 1
  %shr8.i47 = lshr i32 %sub6.i45, 1
  %add9.i48 = add nuw i32 %shr8.i47, %and7.i46
  %mul11.neg.i49 = mul nsw i32 %add.i44, -24578
  %sub12.i50 = add nsw i32 %mul11.neg.i49, %add26
  %sub.i.i51 = call range(i32 0, -2147483648) i32 @llvm.abs.i32(i32 range(i32 -2147483647, -2147483648) %sub12.i50, i1 true)
  %add28 = add nuw nsw i32 %sub.i.i, %sub.i.i51
  %7 = or disjoint i64 %indvars.iv, 512
  %arrayidx36 = getelementptr inbounds nuw [1024 x i16], ptr %v, i64 0, i64 %7
  %8 = load i16, ptr %arrayidx36, align 2
  %conv37 = zext i16 %8 to i32
  %mul38 = shl nuw nsw i32 %conv37, 3
  %add41 = or disjoint i32 %mul38, %mul11
  %mul.i52 = mul nuw nsw i32 %add41, 2730
  %shr.i53 = lshr i32 %mul.i52, 25
  %mul1.neg.i54 = mul nsw i32 %shr.i53, -12289
  %sub.i55 = add nsw i32 %mul1.neg.i54, %add41
  %9 = icmp sgt i32 %sub.i55, 12288
  %shr3.neg.i56 = zext i1 %9 to i32
  %sub4.i57 = add nuw nsw i32 %shr.i53, %shr3.neg.i56
  %and.i58 = and i32 %sub4.i57, 1
  %shr5.i59 = lshr i32 %sub4.i57, 1
  %add.i60 = add nuw nsw i32 %shr5.i59, %and.i58
  %sub6.i61 = add nsw i32 %sub4.i57, -1
  %and7.i62 = and i32 %sub6.i61, 1
  %shr8.i63 = lshr i32 %sub6.i61, 1
  %add9.i64 = add nuw i32 %shr8.i63, %and7.i62
  %mul11.neg.i65 = mul nsw i32 %add.i60, -24578
  %sub12.i66 = add nsw i32 %mul11.neg.i65, %add41
  %sub.i.i67 = call range(i32 0, -2147483648) i32 @llvm.abs.i32(i32 range(i32 -2147483647, -2147483648) %sub12.i66, i1 true)
  %add43 = add nuw nsw i32 %add28, %sub.i.i67
  %10 = or disjoint i64 %indvars.iv, 768
  %arrayidx51 = getelementptr inbounds nuw [1024 x i16], ptr %v, i64 0, i64 %10
  %11 = load i16, ptr %arrayidx51, align 2
  %conv52 = zext i16 %11 to i32
  %mul53 = shl nuw nsw i32 %conv52, 3
  %add56 = or disjoint i32 %mul53, %mul11
  %mul.i68 = mul nuw nsw i32 %add56, 2730
  %shr.i69 = lshr i32 %mul.i68, 25
  %mul1.neg.i70 = mul nsw i32 %shr.i69, -12289
  %sub.i71 = add nsw i32 %mul1.neg.i70, %add56
  %12 = icmp sgt i32 %sub.i71, 12288
  %shr3.neg.i72 = zext i1 %12 to i32
  %sub4.i73 = add nuw nsw i32 %shr.i69, %shr3.neg.i72
  %and.i74 = and i32 %sub4.i73, 1
  %shr5.i75 = lshr i32 %sub4.i73, 1
  %add.i76 = add nuw nsw i32 %shr5.i75, %and.i74
  %sub6.i77 = add nsw i32 %sub4.i73, -1
  %and7.i78 = and i32 %sub6.i77, 1
  %shr8.i79 = ashr i32 %sub6.i77, 1
  %add9.i80 = add nsw i32 %shr8.i79, %and7.i78
  %mul11.neg.i81 = mul nsw i32 %add.i76, -24578
  %sub12.i82 = add nsw i32 %mul11.neg.i81, %add56
  %sub.i.i83 = call range(i32 0, -2147483648) i32 @llvm.abs.i32(i32 range(i32 -2147483647, -2147483648) %sub12.i82, i1 true)
  %add58 = add nuw nsw i32 %add43, %sub.i.i83
  %13 = icmp samesign ugt i32 %add58, 24577
  %shr59.neg = zext i1 %13 to i32
  %xor = select i1 %13, i32 %add9.i, i32 %add.i
  %xor70 = select i1 %13, i32 %add9.i48, i32 %add.i44
  %xor77 = select i1 %13, i32 %add9.i64, i32 %add.i60
  %xor84 = select i1 %13, i32 %add9.i80, i32 %add.i76
  %sub88 = sub i32 %xor, %xor84
  %14 = trunc i32 %sub88 to i16
  %conv90 = and i16 %14, 3
  %arrayidx94 = getelementptr inbounds nuw [1024 x i16], ptr %c, i64 0, i64 %indvars.iv
  store i16 %conv90, ptr %arrayidx94, align 2
  %sub97 = sub i32 %xor70, %xor84
  %15 = trunc i32 %sub97 to i16
  %conv99 = and i16 %15, 3
  %arrayidx103 = getelementptr inbounds nuw [1024 x i16], ptr %c, i64 0, i64 %4
  store i16 %conv99, ptr %arrayidx103, align 2
  %sub106 = sub i32 %xor77, %xor84
  %16 = trunc i32 %sub106 to i16
  %conv108 = and i16 %16, 3
  %arrayidx112 = getelementptr inbounds nuw [1024 x i16], ptr %c, i64 0, i64 %7
  store i16 %conv108, ptr %arrayidx112, align 2
  %mul115 = shl nsw i32 %xor84, 1
  %mul115.masked = and i32 %mul115, 2
  %and117 = or disjoint i32 %mul115.masked, %shr59.neg
  %conv118 = trunc nuw nsw i32 %and117 to i16
  %arrayidx122 = getelementptr inbounds nuw [1024 x i16], ptr %c, i64 0, i64 %10
  store i16 %conv118, ptr %arrayidx122, align 2
  %indvars.iv.next = add nuw nsw i64 %indvars.iv, 1
  %exitcond.not = icmp eq i64 %indvars.iv.next, 256
  br i1 %exitcond.not, label %for.end, label %for.body, !llvm.loop !7

for.end:                                          ; preds = %for.body
  ret void
}